; ModuleID = '25/453.cpp'
source_filename = "25/453.cpp"
target datalayout = "e-m:e-p270:32:32-p271:32:32-p272:64:64-i64:64-f80:128-n8:16:32:64-S128"
target triple = "x86_64-pc-linux-gnu"

%"class.std::ios_base::Init" = type { i8 }
%"class.std::basic_istream" = type { i32 (...)**, i64, %"class.std::basic_ios" }
%"class.std::basic_ios" = type { %"class.std::ios_base", %"class.std::basic_ostream"*, i8, i8, %"class.std::basic_streambuf"*, %"class.std::ctype"*, %"class.std::num_put"*, %"class.std::num_get"* }
%"class.std::ios_base" = type { i32 (...)**, i64, i64, i32, i32, i32, %"struct.std::ios_base::_Callback_list"*, %"struct.std::ios_base::_Words", [8 x %"struct.std::ios_base::_Words"], i32, %"struct.std::ios_base::_Words"*, %"class.std::locale" }
%"struct.std::ios_base::_Callback_list" = type { %"struct.std::ios_base::_Callback_list"*, void (i32, %"class.std::ios_base"*, i32)*, i32, i32 }
%"struct.std::ios_base::_Words" = type { i8*, i64 }
%"class.std::locale" = type { %"class.std::locale::_Impl"* }
%"class.std::locale::_Impl" = type { i32, %"class.std::locale::facet"**, i64, %"class.std::locale::facet"**, i8** }
%"class.std::locale::facet" = type <{ i32 (...)**, i32, [4 x i8] }>
%"class.std::basic_ostream" = type { i32 (...)**, %"class.std::basic_ios" }
%"class.std::basic_streambuf" = type { i32 (...)**, i8*, i8*, i8*, i8*, i8*, i8*, %"class.std::locale" }
%"class.std::ctype" = type <{ %"class.std::locale::facet.base", [4 x i8], %struct.__locale_struct*, i8, [7 x i8], i32*, i32*, i16*, i8, [256 x i8], [256 x i8], i8, [6 x i8] }>
%"class.std::locale::facet.base" = type <{ i32 (...)**, i32 }>
%struct.__locale_struct = type { [13 x %struct.__locale_data*], i16*, i32*, i32*, [13 x i8*] }
%struct.__locale_data = type opaque
%"class.std::num_put" = type { %"class.std::locale::facet.base", [4 x i8] }
%"class.std::num_get" = type { %"class.std::locale::facet.base", [4 x i8] }

@_ZStL8__ioinit = internal global %"class.std::ios_base::Init" zeroinitializer, align 1
@__dso_handle = external hidden global i8
@_ZSt3cin = external dso_local global %"class.std::basic_istream", align 8
@_ZSt4cout = external dso_local global %"class.std::basic_ostream", align 8
@llvm.global_ctors = appending global [1 x { i32, void ()*, i8* }] [{ i32, void ()*, i8* } { i32 65535, void ()* @_GLOBAL__sub_I_453.cpp, i8* null }]

; Function Attrs: noinline uwtable
define internal void @__cxx_global_var_init() #0 section ".text.startup" {
  call void @_ZNSt8ios_base4InitC1Ev(%"class.std::ios_base::Init"* @_ZStL8__ioinit)
  %1 = call i32 @__cxa_atexit(void (i8*)* bitcast (void (%"class.std::ios_base::Init"*)* @_ZNSt8ios_base4InitD1Ev to void (i8*)*), i8* getelementptr inbounds (%"class.std::ios_base::Init", %"class.std::ios_base::Init"* @_ZStL8__ioinit, i32 0, i32 0), i8* @__dso_handle) #3
  ret void
}

declare dso_local void @_ZNSt8ios_base4InitC1Ev(%"class.std::ios_base::Init"*) unnamed_addr #1

; Function Attrs: nounwind
declare dso_local void @_ZNSt8ios_base4InitD1Ev(%"class.std::ios_base::Init"*) unnamed_addr #2

; Function Attrs: nounwind
declare dso_local i32 @__cxa_atexit(void (i8*)*, i8*, i8*) #3

; Function Attrs: noinline nounwind uwtable
define dso_local void @_Z8multiplePcS_(i8* %0, i8* %1) #4 {
  %3 = alloca i8*, align 8
  %4 = alloca i8*, align 8
  %5 = alloca [1500 x i8], align 16
  %6 = alloca i32, align 4
  %7 = alloca i32, align 4
  %8 = alloca i32, align 4
  %9 = alloca i32, align 4
  store i8* %0, i8** %3, align 8
  store i8* %1, i8** %4, align 8
  %10 = bitcast [1500 x i8]* %5 to i8*
  call void @llvm.memset.p0i8.i64(i8* align 16 %10, i8 0, i64 1500, i1 false)
  store i32 0, i32* %6, align 4
  br label %11

11:                                               ; preds = %77, %2
  %12 = load i32, i32* %6, align 4
  %13 = icmp slt i32 %12, 700
  br i1 %13, label %14, label %80

14:                                               ; preds = %11
  store i32 0, i32* %7, align 4
  br label %15

15:                                               ; preds = %73, %14
  %16 = load i32, i32* %7, align 4
  %17 = icmp slt i32 %16, 700
  br i1 %17, label %18, label %76

18:                                               ; preds = %15
  %19 = load i8*, i8** %3, align 8
  %20 = load i32, i32* %6, align 4
  %21 = sext i32 %20 to i64
  %22 = getelementptr inbounds i8, i8* %19, i64 %21
  %23 = load i8, i8* %22, align 1
  %24 = sext i8 %23 to i32
  %25 = load i8*, i8** %4, align 8
  %26 = load i32, i32* %7, align 4
  %27 = sext i32 %26 to i64
  %28 = getelementptr inbounds i8, i8* %25, i64 %27
  %29 = load i8, i8* %28, align 1
  %30 = sext i8 %29 to i32
  %31 = mul nsw i32 %24, %30
  %32 = load i32, i32* %6, align 4
  %33 = load i32, i32* %7, align 4
  %34 = add nsw i32 %32, %33
  %35 = sext i32 %34 to i64
  %36 = getelementptr inbounds [1500 x i8], [1500 x i8]* %5, i64 0, i64 %35
  %37 = load i8, i8* %36, align 1
  %38 = sext i8 %37 to i32
  %39 = add nsw i32 %38, %31
  %40 = trunc i32 %39 to i8
  store i8 %40, i8* %36, align 1
  %41 = load i32, i32* %6, align 4
  %42 = load i32, i32* %7, align 4
  %43 = add nsw i32 %41, %42
  %44 = sext i32 %43 to i64
  %45 = getelementptr inbounds [1500 x i8], [1500 x i8]* %5, i64 0, i64 %44
  %46 = load i8, i8* %45, align 1
  %47 = sext i8 %46 to i32
  %48 = sdiv i32 %47, 10
  %49 = load i32, i32* %6, align 4
  %50 = load i32, i32* %7, align 4
  %51 = add nsw i32 %49, %50
  %52 = add nsw i32 %51, 1
  %53 = sext i32 %52 to i64
  %54 = getelementptr inbounds [1500 x i8], [1500 x i8]* %5, i64 0, i64 %53
  %55 = load i8, i8* %54, align 1
  %56 = sext i8 %55 to i32
  %57 = add nsw i32 %56, %48
  %58 = trunc i32 %57 to i8
  store i8 %58, i8* %54, align 1
  %59 = load i32, i32* %6, align 4
  %60 = load i32, i32* %7, align 4
  %61 = add nsw i32 %59, %60
  %62 = sext i32 %61 to i64
  %63 = getelementptr inbounds [1500 x i8], [1500 x i8]* %5, i64 0, i64 %62
  %64 = load i8, i8* %63, align 1
  %65 = sext i8 %64 to i32
  %66 = srem i32 %65, 10
  %67 = trunc i32 %66 to i8
  %68 = load i32, i32* %6, align 4
  %69 = load i32, i32* %7, align 4
  %70 = add nsw i32 %68, %69
  %71 = sext i32 %70 to i64
  %72 = getelementptr inbounds [1500 x i8], [1500 x i8]* %5, i64 0, i64 %71
  store i8 %67, i8* %72, align 1
  br label %73

73:                                               ; preds = %18
  %74 = load i32, i32* %7, align 4
  %75 = add nsw i32 %74, 1
  store i32 %75, i32* %7, align 4
  br label %15

76:                                               ; preds = %15
  br label %77

77:                                               ; preds = %76
  %78 = load i32, i32* %6, align 4
  %79 = add nsw i32 %78, 1
  store i32 %79, i32* %6, align 4
  br label %11

80:                                               ; preds = %11
  store i32 0, i32* %6, align 4
  br label %81

81:                                               ; preds = %93, %80
  %82 = load i32, i32* %6, align 4
  %83 = icmp slt i32 %82, 1499
  br i1 %83, label %84, label %96

84:                                               ; preds = %81
  %85 = load i32, i32* %6, align 4
  %86 = sext i32 %85 to i64
  %87 = getelementptr inbounds [1500 x i8], [1500 x i8]* %5, i64 0, i64 %86
  %88 = load i8, i8* %87, align 1
  %89 = load i8*, i8** %3, align 8
  %90 = load i32, i32* %6, align 4
  %91 = sext i32 %90 to i64
  %92 = getelementptr inbounds i8, i8* %89, i64 %91
  store i8 %88, i8* %92, align 1
  br label %93

93:                                               ; preds = %84
  %94 = load i32, i32* %6, align 4
  %95 = add nsw i32 %94, 1
  store i32 %95, i32* %6, align 4
  br label %81

96:                                               ; preds = %81
  ret void
}

; Function Attrs: argmemonly nounwind willreturn
declare void @llvm.memset.p0i8.i64(i8* nocapture writeonly, i8, i64, i1 immarg) #5

; Function Attrs: noinline norecurse uwtable
define dso_local i32 @main() #6 {
  %1 = alloca i32, align 4
  %2 = alloca i32, align 4
  %3 = alloca i32, align 4
  %4 = alloca i32, align 4
  %5 = alloca [1500 x i8], align 16
  %6 = alloca [1500 x i8], align 16
  store i32 0, i32* %1, align 4
  %7 = bitcast [1500 x i8]* %5 to i8*
  call void @llvm.memset.p0i8.i64(i8* align 16 %7, i8 0, i64 1500, i1 false)
  %8 = bitcast [1500 x i8]* %6 to i8*
  call void @llvm.memset.p0i8.i64(i8* align 16 %8, i8 0, i64 1500, i1 false)
  %9 = getelementptr inbounds [1500 x i8], [1500 x i8]* %5, i64 0, i64 0
  store i8 2, i8* %9, align 16
  %10 = getelementptr inbounds [1500 x i8], [1500 x i8]* %6, i64 0, i64 0
  store i8 1, i8* %10, align 16
  %11 = call dereferenceable(280) %"class.std::basic_istream"* @_ZNSirsERi(%"class.std::basic_istream"* @_ZSt3cin, i32* dereferenceable(4) %2)
  br label %12

12:                                               ; preds = %22, %0
  %13 = load i32, i32* %2, align 4
  %14 = icmp sgt i32 %13, 0
  br i1 %14, label %15, label %27

15:                                               ; preds = %12
  %16 = load i32, i32* %2, align 4
  %17 = srem i32 %16, 2
  %18 = icmp eq i32 %17, 1
  br i1 %18, label %19, label %22

19:                                               ; preds = %15
  %20 = getelementptr inbounds [1500 x i8], [1500 x i8]* %6, i64 0, i64 0
  %21 = getelementptr inbounds [1500 x i8], [1500 x i8]* %5, i64 0, i64 0
  call void @_Z8multiplePcS_(i8* %20, i8* %21)
  br label %22

22:                                               ; preds = %19, %15
  %23 = getelementptr inbounds [1500 x i8], [1500 x i8]* %5, i64 0, i64 0
  %24 = getelementptr inbounds [1500 x i8], [1500 x i8]* %5, i64 0, i64 0
  call void @_Z8multiplePcS_(i8* %23, i8* %24)
  %25 = load i32, i32* %2, align 4
  %26 = sdiv i32 %25, 2
  store i32 %26, i32* %2, align 4
  br label %12

27:                                               ; preds = %12
  store i32 1499, i32* %4, align 4
  br label %28

28:                                               ; preds = %35, %27
  %29 = load i32, i32* %4, align 4
  %30 = sext i32 %29 to i64
  %31 = getelementptr inbounds [1500 x i8], [1500 x i8]* %6, i64 0, i64 %30
  %32 = load i8, i8* %31, align 1
  %33 = sext i8 %32 to i32
  %34 = icmp eq i32 %33, 0
  br i1 %34, label %35, label %38

35:                                               ; preds = %28
  %36 = load i32, i32* %4, align 4
  %37 = add nsw i32 %36, -1
  store i32 %37, i32* %4, align 4
  br label %28

38:                                               ; preds = %28
  br label %39

39:                                               ; preds = %49, %38
  %40 = load i32, i32* %4, align 4
  %41 = icmp sge i32 %40, 0
  br i1 %41, label %42, label %52

42:                                               ; preds = %39
  %43 = load i32, i32* %4, align 4
  %44 = sext i32 %43 to i64
  %45 = getelementptr inbounds [1500 x i8], [1500 x i8]* %6, i64 0, i64 %44
  %46 = load i8, i8* %45, align 1
  %47 = sext i8 %46 to i32
  %48 = call dereferenceable(272) %"class.std::basic_ostream"* @_ZNSolsEi(%"class.std::basic_ostream"* @_ZSt4cout, i32 %47)
  br label %49

49:                                               ; preds = %42
  %50 = load i32, i32* %4, align 4
  %51 = add nsw i32 %50, -1
  store i32 %51, i32* %4, align 4
  br label %39

52:                                               ; preds = %39
  ret i32 0
}

declare dso_local dereferenceable(280) %"class.std::basic_istream"* @_ZNSirsERi(%"class.std::basic_istream"*, i32* dereferenceable(4)) #1

declare dso_local dereferenceable(272) %"class.std::basic_ostream"* @_ZNSolsEi(%"class.std::basic_ostream"*, i32) #1

; Function Attrs: noinline uwtable
define internal void @_GLOBAL__sub_I_453.cpp() #0 section ".text.startup" {
  call void @__cxx_global_var_init()
  ret void
}


!llvm.module.flags = !{!0}
!llvm.ident = !{!1}

!0 = !{i32 1, !"wchar_size", i32 4}
!1 = !{!"clang version 10.0.0-4ubuntu1 "}
